target datalayout = "e-m:e-p270:32:32-p271:32:32-p272:64:64-i64:64-i128:128-f80:128-n8:16:32:64-S128"
target triple = "x86_64-pc-linux-gnu"

@.str.49 = private unnamed_addr constant [3 x i8] c", \00", align 1
@.str.50 = private unnamed_addr constant [1 x i8] zeroinitializer, align 1
@.str.62 = private unnamed_addr constant [2 x i8] c"s\00", align 1
@.str.168 = private unnamed_addr constant [50 x i8] c"\0A%*s(%lu bit%s of precision beginning at bit %lu)\00", align 1
@.str.169 = private unnamed_addr constant [5 x i8] c"zero\00", align 1
@.str.170 = private unnamed_addr constant [4 x i8] c"one\00", align 1
@.str.171 = private unnamed_addr constant [4 x i8] c"bkg\00", align 1
@.str.172 = private unnamed_addr constant [8 x i8] c"unknown\00", align 1
@.str.173 = private unnamed_addr constant [6 x i8] c"\0A%*s(\00", align 1
@.str.174 = private unnamed_addr constant [22 x i8] c"%lu %s bit%s at bit 0\00", align 1
@.str.175 = private unnamed_addr constant [24 x i8] c"%lu %s bit%s at bit %lu\00", align 1
@.str.176 = private unnamed_addr constant [2 x i8] c")\00", align 1

; Function Attrs: nounwind uwtable
define internal void @print_precision(ptr noundef %0, i64 noundef %1, i32 noundef %2) #0 {
  %4 = alloca ptr, align 8
  %5 = alloca i64, align 8
  %6 = alloca i32, align 4
  %7 = alloca i64, align 8
  %8 = alloca i32, align 4
  %9 = alloca i32, align 4
  %10 = alloca ptr, align 8
  %11 = alloca ptr, align 8
  %12 = alloca i64, align 8
  store ptr %0, ptr %4, align 8, !tbaa !81
  store i64 %1, ptr %5, align 8, !tbaa !11
  store i32 %2, ptr %6, align 4, !tbaa !4
  call void @llvm.lifetime.start.p0(i64 8, ptr %7) #12
  call void @llvm.lifetime.start.p0(i64 4, ptr %8) #12
  call void @llvm.lifetime.start.p0(i64 4, ptr %9) #12
  call void @llvm.lifetime.start.p0(i64 8, ptr %10) #12
  store ptr null, ptr %10, align 8, !tbaa !13
  call void @llvm.lifetime.start.p0(i64 8, ptr %11) #12
  store ptr null, ptr %11, align 8, !tbaa !13
  call void @llvm.lifetime.start.p0(i64 8, ptr %12) #12
  %13 = load i64, ptr %5, align 8, !tbaa !11
  %14 = call i64 @H5Tget_size(i64 noundef %13)
  %15 = mul i64 8, %14
  %16 = load i64, ptr %5, align 8, !tbaa !11
  %17 = call i64 @H5Tget_precision(i64 noundef %16)
  store i64 %17, ptr %7, align 8, !tbaa !11
  %18 = icmp ne i64 %15, %17
  br i1 %18, label %19, label %122

19:                                               ; preds = %3
  %20 = load ptr, ptr %4, align 8, !tbaa !81
  %21 = load i32, ptr %6, align 4, !tbaa !4
  %22 = load i64, ptr %7, align 8, !tbaa !11
  %23 = load i64, ptr %7, align 8, !tbaa !11
  %24 = icmp eq i64 1, %23
  %25 = select i1 %24, ptr @.str.50, ptr @.str.62
  %26 = load i64, ptr %5, align 8, !tbaa !11
  %27 = call i32 @H5Tget_offset(i64 noundef %26)
  %28 = sext i32 %27 to i64
  %29 = call ptr (ptr, ptr, ...) @h5tools_str_append(ptr noundef %20, ptr noundef @.str.168, i32 noundef %21, ptr noundef @.str.50, i64 noundef %22, ptr noundef %25, i64 noundef %28)
  %30 = load i64, ptr %5, align 8, !tbaa !11
  %31 = call i32 @H5Tget_pad(i64 noundef %30, ptr noundef %8, ptr noundef %9)
  %32 = load i64, ptr %5, align 8, !tbaa !11
  %33 = call i32 @H5Tget_offset(i64 noundef %32)
  %34 = icmp sgt i32 %33, 0
  br i1 %34, label %35, label %43

35:                                               ; preds = %19
  %36 = load i32, ptr %8, align 4, !tbaa !4
  switch i32 %36, label %41 [
    i32 0, label %37
    i32 1, label %38
    i32 2, label %39
    i32 -1, label %40
    i32 3, label %40
  ]

37:                                               ; preds = %35
  store ptr @.str.169, ptr %10, align 8, !tbaa !13
  br label %42

38:                                               ; preds = %35
  store ptr @.str.170, ptr %10, align 8, !tbaa !13
  br label %42

39:                                               ; preds = %35
  store ptr @.str.171, ptr %10, align 8, !tbaa !13
  br label %42

40:                                               ; preds = %35, %35
  store ptr @.str.172, ptr %10, align 8, !tbaa !13
  br label %42

41:                                               ; preds = %35
  br label %42

42:                                               ; preds = %41, %40, %39, %38, %37
  br label %43

43:                                               ; preds = %42, %19
  %44 = load i64, ptr %5, align 8, !tbaa !11
  %45 = call i32 @H5Tget_offset(i64 noundef %44)
  %46 = zext i32 %45 to i64
  %47 = load i64, ptr %7, align 8, !tbaa !11
  %48 = add i64 %46, %47
  %49 = load i64, ptr %5, align 8, !tbaa !11
  %50 = call i64 @H5Tget_size(i64 noundef %49)
  %51 = mul i64 8, %50
  %52 = icmp ult i64 %48, %51
  br i1 %52, label %53, label %61

53:                                               ; preds = %43
  %54 = load i32, ptr %9, align 4, !tbaa !4
  switch i32 %54, label %59 [
    i32 0, label %55
    i32 1, label %56
    i32 2, label %57
    i32 -1, label %58
    i32 3, label %58
  ]

55:                                               ; preds = %53
  store ptr @.str.169, ptr %11, align 8, !tbaa !13
  br label %60

56:                                               ; preds = %53
  store ptr @.str.170, ptr %11, align 8, !tbaa !13
  br label %60

57:                                               ; preds = %53
  store ptr @.str.171, ptr %11, align 8, !tbaa !13
  br label %60

58:                                               ; preds = %53, %53
  store ptr @.str.172, ptr %11, align 8, !tbaa !13
  br label %60

59:                                               ; preds = %53
  br label %60

60:                                               ; preds = %59, %58, %57, %56, %55
  br label %61

61:                                               ; preds = %60, %43
  %62 = load ptr, ptr %10, align 8, !tbaa !13
  %63 = icmp ne ptr %62, null
  br i1 %63, label %67, label %64

64:                                               ; preds = %61
  %65 = load ptr, ptr %11, align 8, !tbaa !13
  %66 = icmp ne ptr %65, null
  br i1 %66, label %67, label %121

67:                                               ; preds = %64, %61
  %68 = load ptr, ptr %4, align 8, !tbaa !81
  %69 = load i32, ptr %6, align 4, !tbaa !4
  %70 = call ptr (ptr, ptr, ...) @h5tools_str_append(ptr noundef %68, ptr noundef @.str.173, i32 noundef %69, ptr noundef @.str.50)
  %71 = load ptr, ptr %10, align 8, !tbaa !13
  %72 = icmp ne ptr %71, null
  br i1 %72, label %73, label %84

73:                                               ; preds = %67
  %74 = load i64, ptr %5, align 8, !tbaa !11
  %75 = call i32 @H5Tget_offset(i64 noundef %74)
  %76 = zext i32 %75 to i64
  store i64 %76, ptr %12, align 8, !tbaa !11
  %77 = load ptr, ptr %4, align 8, !tbaa !81
  %78 = load i64, ptr %12, align 8, !tbaa !11
  %79 = load ptr, ptr %10, align 8, !tbaa !13
  %80 = load i64, ptr %12, align 8, !tbaa !11
  %81 = icmp eq i64 1, %80
  %82 = select i1 %81, ptr @.str.50, ptr @.str.62
  %83 = call ptr (ptr, ptr, ...) @h5tools_str_append(ptr noundef %77, ptr noundef @.str.174, i64 noundef %78, ptr noundef %79, ptr noundef %82)
  br label %84

84:                                               ; preds = %73, %67
  %85 = load ptr, ptr %10, align 8, !tbaa !13
  %86 = icmp ne ptr %85, null
  br i1 %86, label %87, label %93

87:                                               ; preds = %84
  %88 = load ptr, ptr %11, align 8, !tbaa !13
  %89 = icmp ne ptr %88, null
  br i1 %89, label %90, label %93

90:                                               ; preds = %87
  %91 = load ptr, ptr %4, align 8, !tbaa !81
  %92 = call ptr (ptr, ptr, ...) @h5tools_str_append(ptr noundef %91, ptr noundef @.str.49)
  br label %93

93:                                               ; preds = %90, %87, %84
  %94 = load ptr, ptr %11, align 8, !tbaa !13
  %95 = icmp ne ptr %94, null
  br i1 %95, label %96, label %118

96:                                               ; preds = %93
  %97 = load i64, ptr %5, align 8, !tbaa !11
  %98 = call i64 @H5Tget_size(i64 noundef %97)
  %99 = mul i64 8, %98
  %100 = load i64, ptr %5, align 8, !tbaa !11
  %101 = call i32 @H5Tget_offset(i64 noundef %100)
  %102 = zext i32 %101 to i64
  %103 = load i64, ptr %7, align 8, !tbaa !11
  %104 = add i64 %102, %103
  %105 = sub i64 %99, %104
  store i64 %105, ptr %12, align 8, !tbaa !11
  %106 = load ptr, ptr %4, align 8, !tbaa !81
  %107 = load i64, ptr %12, align 8, !tbaa !11
  %108 = load ptr, ptr %11, align 8, !tbaa !13
  %109 = load i64, ptr %12, align 8, !tbaa !11
  %110 = icmp eq i64 1, %109
  %111 = select i1 %110, ptr @.str.50, ptr @.str.62
  %112 = load i64, ptr %5, align 8, !tbaa !11
  %113 = call i64 @H5Tget_size(i64 noundef %112)
  %114 = mul i64 8, %113
  %115 = load i64, ptr %12, align 8, !tbaa !11
  %116 = sub i64 %114, %115
  %117 = call ptr (ptr, ptr, ...) @h5tools_str_append(ptr noundef %106, ptr noundef @.str.175, i64 noundef %107, ptr noundef %108, ptr noundef %111, i64 noundef %116)
  br label %118

118:                                              ; preds = %96, %93
  %119 = load ptr, ptr %4, align 8, !tbaa !81
  %120 = call ptr (ptr, ptr, ...) @h5tools_str_append(ptr noundef %119, ptr noundef @.str.176)
  br label %121

121:                                              ; preds = %118, %64
  br label %122

122:                                              ; preds = %121, %3
  call void @llvm.lifetime.end.p0(i64 8, ptr %12) #12
  call void @llvm.lifetime.end.p0(i64 8, ptr %11) #12
  call void @llvm.lifetime.end.p0(i64 8, ptr %10) #12
  call void @llvm.lifetime.end.p0(i64 4, ptr %9) #12
  call void @llvm.lifetime.end.p0(i64 4, ptr %8) #12
  call void @llvm.lifetime.end.p0(i64 8, ptr %7) #12
  ret void
}