; Function Attrs: nounwind uwtable
define internal fastcc void @print_precision(ptr noundef nonnull %0, i64 noundef range(i64 0, -9223372036854775808) %1, i32 noundef %2) unnamed_addr #4 {
  %4 = alloca i32, align 4
  %5 = alloca i32, align 4
  call void @llvm.lifetime.start.p0(i64 4, ptr nonnull %4) #20
  call void @llvm.lifetime.start.p0(i64 4, ptr nonnull %5) #20
  %6 = tail call i64 @H5Tget_size(i64 noundef %1) #20
  %7 = shl i64 %6, 3
  %8 = tail call i64 @H5Tget_precision(i64 noundef %1) #20
  %.not = icmp eq i64 %7, %8
  br i1 %.not, label %61, label %9

9:                                                ; preds = %3
  %10 = icmp eq i64 %8, 1
  %11 = select i1 %10, ptr @.str.50, ptr @.str.62
  %12 = tail call i32 @H5Tget_offset(i64 noundef %1) #20
  %13 = sext i32 %12 to i64
  %14 = tail call ptr (ptr, ptr, ...) @h5tools_str_append(ptr noundef nonnull %0, ptr noundef nonnull @.str.168, i32 noundef %2, ptr noundef nonnull @.str.50, i64 noundef %8, ptr noundef nonnull %11, i64 noundef %13) #20
  %15 = call i32 @H5Tget_pad(i64 noundef %1, ptr noundef nonnull %4, ptr noundef nonnull %5) #20
  %16 = call i32 @H5Tget_offset(i64 noundef %1) #20
  %17 = icmp sgt i32 %16, 0
  br i1 %17, label %18, label %24

18:                                               ; preds = %9
  %19 = load i32, ptr %4, align 4, !tbaa !17
  switch i32 %19, label %24 [
    i32 0, label %20
    i32 1, label %21
    i32 2, label %22
    i32 -1, label %23
    i32 3, label %23
  ]

20:                                               ; preds = %18
  br label %24

21:                                               ; preds = %18
  br label %24

22:                                               ; preds = %18
  br label %24

23:                                               ; preds = %18, %18
  br label %24

24:                                               ; preds = %20, %21, %22, %23, %18, %9
  %25 = phi i1 [ false, %18 ], [ true, %23 ], [ true, %22 ], [ true, %21 ], [ true, %20 ], [ false, %9 ]
  %.038 = phi ptr [ null, %18 ], [ @.str.172, %23 ], [ @.str.171, %22 ], [ @.str.170, %21 ], [ @.str.169, %20 ], [ null, %9 ]
  %26 = call i32 @H5Tget_offset(i64 noundef %1) #20
  %27 = zext i32 %26 to i64
  %28 = add i64 %8, %27
  %29 = call i64 @H5Tget_size(i64 noundef %1) #20
  %30 = shl i64 %29, 3
  %31 = icmp ult i64 %28, %30
  br i1 %31, label %32, label %35

32:                                               ; preds = %24
  %33 = load i32, ptr %5, align 4, !tbaa !17
  %switch.tableidx = add i32 %33, 1
  %34 = icmp ult i32 %switch.tableidx, 5
  br i1 %34, label %switch.lookup, label %35

35:                                               ; preds = %32, %24
  br i1 %25, label %.thread.thread, label %61

.thread.thread:                                   ; preds = %35
  %36 = call ptr (ptr, ptr, ...) @h5tools_str_append(ptr noundef nonnull %0, ptr noundef nonnull @.str.173, i32 noundef %2, ptr noundef nonnull @.str.50) #20
  br label %39

switch.lookup:                                    ; preds = %32
  %37 = zext nneg i32 %switch.tableidx to i64
  %switch.gep = getelementptr inbounds nuw [5 x ptr], ptr @switch.table.print_float_type.3, i64 0, i64 %37
  %switch.load = load ptr, ptr %switch.gep, align 8
  %38 = call ptr (ptr, ptr, ...) @h5tools_str_append(ptr noundef nonnull %0, ptr noundef nonnull @.str.173, i32 noundef %2, ptr noundef nonnull @.str.50) #20
  br i1 %25, label %39, label %.thread43

39:                                               ; preds = %.thread.thread, %switch.lookup
  %40 = phi i1 [ false, %.thread.thread ], [ true, %switch.lookup ]
  %.04249 = phi ptr [ null, %.thread.thread ], [ %switch.load, %switch.lookup ]
  %41 = call i32 @H5Tget_offset(i64 noundef %1) #20
  %42 = zext i32 %41 to i64
  %43 = icmp eq i32 %41, 1
  %44 = select i1 %43, ptr @.str.50, ptr @.str.62
  %45 = call ptr (ptr, ptr, ...) @h5tools_str_append(ptr noundef nonnull %0, ptr noundef nonnull @.str.174, i64 noundef %42, ptr noundef %.038, ptr noundef nonnull %44) #20
  br i1 %40, label %46, label %.critedge

46:                                               ; preds = %39
  %47 = call ptr (ptr, ptr, ...) @h5tools_str_append(ptr noundef nonnull %0, ptr noundef nonnull @.str.49) #20
  br label %.thread43

.thread43:                                        ; preds = %46, %switch.lookup
  %.04248 = phi ptr [ %switch.load, %switch.lookup ], [ %.04249, %46 ]
  %48 = call i64 @H5Tget_size(i64 noundef %1) #20
  %49 = shl i64 %48, 3
  %50 = call i32 @H5Tget_offset(i64 noundef %1) #20
  %51 = zext i32 %50 to i64
  %52 = add i64 %8, %51
  %53 = sub i64 %49, %52
  %54 = icmp eq i64 %53, 1
  %55 = select i1 %54, ptr @.str.50, ptr @.str.62
  %56 = call i64 @H5Tget_size(i64 noundef %1) #20
  %57 = shl i64 %56, 3
  %58 = sub i64 %57, %53
  %59 = call ptr (ptr, ptr, ...) @h5tools_str_append(ptr noundef nonnull %0, ptr noundef nonnull @.str.175, i64 noundef %53, ptr noundef %.04248, ptr noundef nonnull %55, i64 noundef %58) #20
  br label %.critedge

.critedge:                                        ; preds = %39, %.thread43
  %60 = call ptr (ptr, ptr, ...) @h5tools_str_append(ptr noundef nonnull %0, ptr noundef nonnull @.str.176) #20
  br label %61

61:                                               ; preds = %.critedge, %35, %3
  call void @llvm.lifetime.end.p0(i64 4, ptr nonnull %5) #20
  call void @llvm.lifetime.end.p0(i64 4, ptr nonnull %4) #20
  ret void
}